; Function Attrs: mustprogress nofree norecurse nosync nounwind willreturn memory(read, inaccessiblemem: none) uwtable
define dso_local noundef i32 @_ZNK21btMultiBodyJointMotor12getIslandIdBEv(ptr noundef nonnull readonly align 8 captures(none) dereferenceable(120) %0) unnamed_addr #5 align 2 {
  %2 = getelementptr inbounds nuw i8, ptr %0, i64 28
  %3 = load i32, ptr %2, align 4, !tbaa !65
  %4 = icmp slt i32 %3, 0
  %5 = getelementptr inbounds nuw i8, ptr %0, i64 16
  %6 = load ptr, ptr %5, align 8, !tbaa !66
  br i1 %4, label %7, label %10

7:                                                ; preds = %1
  %8 = getelementptr inbounds nuw i8, ptr %6, i64 8
  %9 = load ptr, ptr %8, align 8, !tbaa !49
  %.not7.not = icmp eq ptr %9, null
  br i1 %.not7.not, label %.thread, label %.thread.sink.split

10:                                               ; preds = %1
  %11 = getelementptr inbounds nuw i8, ptr %6, i64 192
  %12 = load ptr, ptr %11, align 8, !tbaa !4
  %13 = zext nneg i32 %3 to i64
  %14 = getelementptr inbounds nuw %struct.btMultibodyLink, ptr %12, i64 %13, i32 22
  %15 = load ptr, ptr %14, align 8, !tbaa !57
  %.not = icmp eq ptr %15, null
  br i1 %.not, label %.thread, label %.thread.sink.split

.thread.sink.split:                               ; preds = %10, %7
  %.sink10 = phi ptr [ %9, %7 ], [ %15, %10 ]
  %16 = getelementptr inbounds nuw i8, ptr %.sink10, i64 228
  %17 = load i32, ptr %16, align 4, !tbaa !58
  br label %.thread

.thread:                                          ; preds = %.thread.sink.split, %7, %10
  %.1 = phi i32 [ -1, %10 ], [ -1, %7 ], [ %17, %.thread.sink.split ]
  ret i32 %.1
}